target datalayout = "e-m:e-p270:32:32-p271:32:32-p272:64:64-i64:64-i128:128-f80:128-n8:16:32:64-S128"
target triple = "x86_64-pc-linux-gnu"

%struct.pointf_s = type { double, double }
%struct.boxf = type { %struct.pointf_s, %struct.pointf_s }
%struct.textlabel_t = type { ptr, ptr, ptr, i32, double, %struct.pointf_s, %struct.pointf_s, %struct.pointf_s, %union.anon.0, i8, i8, i8 }
%union.anon.0 = type { %struct.anon.1 }
%struct.anon.1 = type { ptr, i64 }
%struct.field_t = type { %struct.pointf_s, %struct.boxf, i32, ptr, ptr, ptr, i8, i8 }

@.str.8 = private unnamed_addr constant [7 x i8] c"margin\00", align 1
@.str.9 = private unnamed_addr constant [8 x i8] c"%lf,%lf\00", align 1

; Function Attrs: nounwind uwtable
define internal { double, double } @size_reclbl(ptr noundef %0, ptr noundef %1) #0 {
  %3 = alloca %struct.pointf_s, align 8
  %4 = alloca ptr, align 8
  %5 = alloca ptr, align 8
  %6 = alloca i32, align 4
  %7 = alloca ptr, align 8
  %8 = alloca double, align 8
  %9 = alloca double, align 8
  %10 = alloca %struct.pointf_s, align 8
  %11 = alloca %struct.pointf_s, align 8
  %12 = alloca %struct.pointf_s, align 8
  store ptr %0, ptr %4, align 8, !tbaa !35
  store ptr %1, ptr %5, align 8, !tbaa !120
  call void @llvm.lifetime.start.p0(i64 4, ptr %6) #13
  call void @llvm.lifetime.start.p0(i64 8, ptr %7) #13
  call void @llvm.lifetime.start.p0(i64 8, ptr %8) #13
  call void @llvm.lifetime.start.p0(i64 8, ptr %9) #13
  call void @llvm.lifetime.start.p0(i64 16, ptr %10) #13
  call void @llvm.lifetime.start.p0(i64 16, ptr %11) #13
  %13 = load ptr, ptr %5, align 8, !tbaa !120
  %14 = getelementptr inbounds nuw %struct.field_t, ptr %13, i32 0, i32 3
  %15 = load ptr, ptr %14, align 8, !tbaa !184
  %16 = icmp ne ptr %15, null
  br i1 %16, label %17, label %76

17:                                               ; preds = %2
  %18 = load ptr, ptr %5, align 8, !tbaa !120
  %19 = getelementptr inbounds nuw %struct.field_t, ptr %18, i32 0, i32 3
  %20 = load ptr, ptr %19, align 8, !tbaa !184
  %21 = getelementptr inbounds nuw %struct.textlabel_t, ptr %20, i32 0, i32 5
  call void @llvm.memcpy.p0.p0.i64(ptr align 8 %11, ptr align 8 %21, i64 16, i1 false), !tbaa.struct !16
  %22 = getelementptr inbounds nuw %struct.pointf_s, ptr %11, i32 0, i32 0
  %23 = load double, ptr %22, align 8, !tbaa !21
  %24 = fcmp ogt double %23, 0.000000e+00
  br i1 %24, label %29, label %25

25:                                               ; preds = %17
  %26 = getelementptr inbounds nuw %struct.pointf_s, ptr %11, i32 0, i32 1
  %27 = load double, ptr %26, align 8, !tbaa !23
  %28 = fcmp ogt double %27, 0.000000e+00
  br i1 %28, label %29, label %75

29:                                               ; preds = %25, %17
  %30 = load ptr, ptr %4, align 8, !tbaa !35
  %31 = call ptr @agget(ptr noundef %30, ptr noundef @.str.8)
  store ptr %31, ptr %7, align 8, !tbaa !75
  %32 = icmp ne ptr %31, null
  br i1 %32, label %33, label %67

33:                                               ; preds = %29
  %34 = load ptr, ptr %7, align 8, !tbaa !75
  %35 = call i32 (ptr, ptr, ...) @__isoc99_sscanf(ptr noundef %34, ptr noundef @.str.9, ptr noundef %8, ptr noundef %9) #13
  store i32 %35, ptr %6, align 4, !tbaa !12
  %36 = load i32, ptr %6, align 4, !tbaa !12
  %37 = icmp sgt i32 %36, 0
  br i1 %37, label %38, label %59

38:                                               ; preds = %33
  %39 = load double, ptr %8, align 8, !tbaa !17
  %40 = fmul double %39, 7.200000e+01
  %41 = getelementptr inbounds nuw %struct.pointf_s, ptr %11, i32 0, i32 0
  %42 = load double, ptr %41, align 8, !tbaa !21
  %43 = call double @llvm.fmuladd.f64(double 2.000000e+00, double %40, double %42)
  store double %43, ptr %41, align 8, !tbaa !21
  %44 = load i32, ptr %6, align 4, !tbaa !12
  %45 = icmp sgt i32 %44, 1
  br i1 %45, label %46, label %52

46:                                               ; preds = %38
  %47 = load double, ptr %9, align 8, !tbaa !17
  %48 = fmul double %47, 7.200000e+01
  %49 = getelementptr inbounds nuw %struct.pointf_s, ptr %11, i32 0, i32 1
  %50 = load double, ptr %49, align 8, !tbaa !23
  %51 = call double @llvm.fmuladd.f64(double 2.000000e+00, double %48, double %50)
  store double %51, ptr %49, align 8, !tbaa !23
  br label %58

52:                                               ; preds = %38
  %53 = load double, ptr %8, align 8, !tbaa !17
  %54 = fmul double %53, 7.200000e+01
  %55 = getelementptr inbounds nuw %struct.pointf_s, ptr %11, i32 0, i32 1
  %56 = load double, ptr %55, align 8, !tbaa !23
  %57 = call double @llvm.fmuladd.f64(double 2.000000e+00, double %54, double %56)
  store double %57, ptr %55, align 8, !tbaa !23
  br label %58

58:                                               ; preds = %52, %46
  br label %66

59:                                               ; preds = %33
  %60 = getelementptr inbounds nuw %struct.pointf_s, ptr %11, i32 0, i32 0
  %61 = load double, ptr %60, align 8, !tbaa !21
  %62 = fadd double %61, 1.600000e+01
  store double %62, ptr %60, align 8, !tbaa !21
  %63 = getelementptr inbounds nuw %struct.pointf_s, ptr %11, i32 0, i32 1
  %64 = load double, ptr %63, align 8, !tbaa !23
  %65 = fadd double %64, 8.000000e+00
  store double %65, ptr %63, align 8, !tbaa !23
  br label %66

66:                                               ; preds = %59, %58
  br label %74

67:                                               ; preds = %29
  %68 = getelementptr inbounds nuw %struct.pointf_s, ptr %11, i32 0, i32 0
  %69 = load double, ptr %68, align 8, !tbaa !21
  %70 = fadd double %69, 1.600000e+01
  store double %70, ptr %68, align 8, !tbaa !21
  %71 = getelementptr inbounds nuw %struct.pointf_s, ptr %11, i32 0, i32 1
  %72 = load double, ptr %71, align 8, !tbaa !23
  %73 = fadd double %72, 8.000000e+00
  store double %73, ptr %71, align 8, !tbaa !23
  br label %74

74:                                               ; preds = %67, %66
  br label %75

75:                                               ; preds = %74, %25
  call void @llvm.memcpy.p0.p0.i64(ptr align 8 %3, ptr align 8 %11, i64 16, i1 false), !tbaa.struct !16
  br label %132

76:                                               ; preds = %2
  %77 = getelementptr inbounds nuw %struct.pointf_s, ptr %3, i32 0, i32 1
  store double 0.000000e+00, ptr %77, align 8, !tbaa !23
  %78 = getelementptr inbounds nuw %struct.pointf_s, ptr %3, i32 0, i32 0
  store double 0.000000e+00, ptr %78, align 8, !tbaa !21
  store i32 0, ptr %6, align 4, !tbaa !12
  br label %79

79:                                               ; preds = %128, %76
  %80 = load i32, ptr %6, align 4, !tbaa !12
  %81 = load ptr, ptr %5, align 8, !tbaa !120
  %82 = getelementptr inbounds nuw %struct.field_t, ptr %81, i32 0, i32 2
  %83 = load i32, ptr %82, align 8, !tbaa !185
  %84 = icmp slt i32 %80, %83
  br i1 %84, label %85, label %131

85:                                               ; preds = %79
  call void @llvm.lifetime.start.p0(i64 16, ptr %12) #13
  %86 = load ptr, ptr %4, align 8, !tbaa !35
  %87 = load ptr, ptr %5, align 8, !tbaa !120
  %88 = getelementptr inbounds nuw %struct.field_t, ptr %87, i32 0, i32 4
  %89 = load ptr, ptr %88, align 8, !tbaa !176
  %90 = load i32, ptr %6, align 4, !tbaa !12
  %91 = sext i32 %90 to i64
  %92 = getelementptr inbounds ptr, ptr %89, i64 %91
  %93 = load ptr, ptr %92, align 8, !tbaa !120
  %94 = call { double, double } @size_reclbl(ptr noundef %86, ptr noundef %93)
  %95 = getelementptr inbounds nuw { double, double }, ptr %12, i32 0, i32 0
  %96 = extractvalue { double, double } %94, 0
  store double %96, ptr %95, align 8
  %97 = getelementptr inbounds nuw { double, double }, ptr %12, i32 0, i32 1
  %98 = extractvalue { double, double } %94, 1
  store double %98, ptr %97, align 8
  call void @llvm.memcpy.p0.p0.i64(ptr align 8 %10, ptr align 8 %12, i64 16, i1 false), !tbaa.struct !16
  call void @llvm.lifetime.end.p0(i64 16, ptr %12) #13
  %99 = load ptr, ptr %5, align 8, !tbaa !120
  %100 = getelementptr inbounds nuw %struct.field_t, ptr %99, i32 0, i32 6
  %101 = load i8, ptr %100, align 8, !tbaa !177
  %102 = icmp ne i8 %101, 0
  br i1 %102, label %103, label %115

103:                                              ; preds = %85
  %104 = getelementptr inbounds nuw %struct.pointf_s, ptr %10, i32 0, i32 0
  %105 = load double, ptr %104, align 8, !tbaa !21
  %106 = getelementptr inbounds nuw %struct.pointf_s, ptr %3, i32 0, i32 0
  %107 = load double, ptr %106, align 8, !tbaa !21
  %108 = fadd double %107, %105
  store double %108, ptr %106, align 8, !tbaa !21
  %109 = getelementptr inbounds nuw %struct.pointf_s, ptr %3, i32 0, i32 1
  %110 = load double, ptr %109, align 8, !tbaa !23
  %111 = getelementptr inbounds nuw %struct.pointf_s, ptr %10, i32 0, i32 1
  %112 = load double, ptr %111, align 8, !tbaa !23
  %113 = call double @llvm.maxnum.f64(double %110, double %112)
  %114 = getelementptr inbounds nuw %struct.pointf_s, ptr %3, i32 0, i32 1
  store double %113, ptr %114, align 8, !tbaa !23
  br label %127

115:                                              ; preds = %85
  %116 = getelementptr inbounds nuw %struct.pointf_s, ptr %10, i32 0, i32 1
  %117 = load double, ptr %116, align 8, !tbaa !23
  %118 = getelementptr inbounds nuw %struct.pointf_s, ptr %3, i32 0, i32 1
  %119 = load double, ptr %118, align 8, !tbaa !23
  %120 = fadd double %119, %117
  store double %120, ptr %118, align 8, !tbaa !23
  %121 = getelementptr inbounds nuw %struct.pointf_s, ptr %3, i32 0, i32 0
  %122 = load double, ptr %121, align 8, !tbaa !21
  %123 = getelementptr inbounds nuw %struct.pointf_s, ptr %10, i32 0, i32 0
  %124 = load double, ptr %123, align 8, !tbaa !21
  %125 = call double @llvm.maxnum.f64(double %122, double %124)
  %126 = getelementptr inbounds nuw %struct.pointf_s, ptr %3, i32 0, i32 0
  store double %125, ptr %126, align 8, !tbaa !21
  br label %127

127:                                              ; preds = %115, %103
  br label %128

128:                                              ; preds = %127
  %129 = load i32, ptr %6, align 4, !tbaa !12
  %130 = add nsw i32 %129, 1
  store i32 %130, ptr %6, align 4, !tbaa !12
  br label %79, !llvm.loop !187

131:                                              ; preds = %79
  br label %132

132:                                              ; preds = %131, %75
  %133 = load ptr, ptr %5, align 8, !tbaa !120
  %134 = getelementptr inbounds nuw %struct.field_t, ptr %133, i32 0, i32 0
  call void @llvm.memcpy.p0.p0.i64(ptr align 8 %134, ptr align 8 %3, i64 16, i1 false), !tbaa.struct !16
  call void @llvm.lifetime.end.p0(i64 16, ptr %11) #13
  call void @llvm.lifetime.end.p0(i64 16, ptr %10) #13
  call void @llvm.lifetime.end.p0(i64 8, ptr %9) #13
  call void @llvm.lifetime.end.p0(i64 8, ptr %8) #13
  call void @llvm.lifetime.end.p0(i64 8, ptr %7) #13
  call void @llvm.lifetime.end.p0(i64 4, ptr %6) #13
  %135 = load { double, double }, ptr %3, align 8
  ret { double, double } %135
}