; Function Attrs: nounwind uwtable
define internal fastcc { double, double } @size_reclbl(ptr noundef %0, ptr noundef captures(none) %1) unnamed_addr #0 {
  %3 = alloca double, align 8
  %4 = alloca double, align 8
  call void @llvm.lifetime.start.p0(i64 8, ptr nonnull %3) #26
  call void @llvm.lifetime.start.p0(i64 8, ptr nonnull %4) #26
  %5 = getelementptr inbounds nuw i8, ptr %1, i64 56
  %6 = load ptr, ptr %5, align 8, !tbaa !162
  %.not = icmp eq ptr %6, null
  br i1 %.not, label %.preheader, label %12

.preheader:                                       ; preds = %2
  %7 = getelementptr inbounds nuw i8, ptr %1, i64 48
  %8 = load i32, ptr %7, align 8, !tbaa !163
  %9 = icmp sgt i32 %8, 0
  br i1 %9, label %.lr.ph, label %.loopexit

.lr.ph:                                           ; preds = %.preheader
  %10 = getelementptr inbounds nuw i8, ptr %1, i64 64
  %11 = getelementptr inbounds nuw i8, ptr %1, i64 80
  br label %37

12:                                               ; preds = %2
  %13 = getelementptr inbounds nuw i8, ptr %6, i64 40
  %.sroa.03.0.copyload = load double, ptr %13, align 8, !tbaa !4
  %.sroa.11.0..sroa_idx = getelementptr inbounds nuw i8, ptr %6, i64 48
  %.sroa.11.0.copyload = load double, ptr %.sroa.11.0..sroa_idx, align 8, !tbaa !4
  %14 = fcmp ogt double %.sroa.03.0.copyload, 0.000000e+00
  %15 = fcmp ogt double %.sroa.11.0.copyload, 0.000000e+00
  %or.cond = select i1 %14, i1 true, i1 %15
  br i1 %or.cond, label %16, label %.loopexit

16:                                               ; preds = %12
  %17 = tail call ptr @agget(ptr noundef %0, ptr noundef nonnull @.str.8) #26
  %.not36 = icmp eq ptr %17, null
  br i1 %.not36, label %34, label %18

18:                                               ; preds = %16
  %19 = call i32 (ptr, ptr, ...) @__isoc99_sscanf(ptr noundef nonnull %17, ptr noundef nonnull @.str.9, ptr noundef nonnull %3, ptr noundef nonnull %4) #26
  %20 = icmp sgt i32 %19, 0
  br i1 %20, label %21, label %31

21:                                               ; preds = %18
  %22 = load double, ptr %3, align 8, !tbaa !4
  %23 = fmul double %22, 7.200000e+01
  %24 = call double @llvm.fmuladd.f64(double %23, double 2.000000e+00, double %.sroa.03.0.copyload)
  %.not37 = icmp eq i32 %19, 1
  br i1 %.not37, label %29, label %25

25:                                               ; preds = %21
  %26 = load double, ptr %4, align 8, !tbaa !4
  %27 = fmul double %26, 7.200000e+01
  %28 = call double @llvm.fmuladd.f64(double %27, double 2.000000e+00, double %.sroa.11.0.copyload)
  br label %.loopexit

29:                                               ; preds = %21
  %30 = call double @llvm.fmuladd.f64(double %23, double 2.000000e+00, double %.sroa.11.0.copyload)
  br label %.loopexit

31:                                               ; preds = %18
  %32 = fadd double %.sroa.03.0.copyload, 1.600000e+01
  %33 = fadd double %.sroa.11.0.copyload, 8.000000e+00
  br label %.loopexit

34:                                               ; preds = %16
  %35 = fadd double %.sroa.03.0.copyload, 1.600000e+01
  %36 = fadd double %.sroa.11.0.copyload, 8.000000e+00
  br label %.loopexit

37:                                               ; preds = %.lr.ph, %51
  %indvars.iv = phi i64 [ 0, %.lr.ph ], [ %indvars.iv.next, %51 ]
  %.sroa.8.140 = phi double [ 0.000000e+00, %.lr.ph ], [ %.sroa.8.2, %51 ]
  %.sroa.029.139 = phi double [ 0.000000e+00, %.lr.ph ], [ %.sroa.029.2, %51 ]
  %38 = load ptr, ptr %10, align 8, !tbaa !152
  %39 = getelementptr inbounds nuw ptr, ptr %38, i64 %indvars.iv
  %40 = load ptr, ptr %39, align 8, !tbaa !156
  %41 = tail call fastcc { double, double } @size_reclbl(ptr noundef %0, ptr noundef %40)
  %42 = extractvalue { double, double } %41, 0
  %43 = extractvalue { double, double } %41, 1
  %44 = load i8, ptr %11, align 8, !tbaa !153
  %.not35 = icmp eq i8 %44, 0
  br i1 %.not35, label %48, label %45

45:                                               ; preds = %37
  %46 = fadd double %.sroa.029.139, %42
  %47 = tail call double @llvm.maxnum.f64(double %.sroa.8.140, double %43)
  br label %51

48:                                               ; preds = %37
  %49 = fadd double %.sroa.8.140, %43
  %50 = tail call double @llvm.maxnum.f64(double %.sroa.029.139, double %42)
  br label %51

51:                                               ; preds = %45, %48
  %.sroa.029.2 = phi double [ %46, %45 ], [ %50, %48 ]
  %.sroa.8.2 = phi double [ %47, %45 ], [ %49, %48 ]
  %indvars.iv.next = add nuw nsw i64 %indvars.iv, 1
  %52 = load i32, ptr %7, align 8, !tbaa !163
  %53 = sext i32 %52 to i64
  %54 = icmp slt i64 %indvars.iv.next, %53
  br i1 %54, label %37, label %.loopexit, !llvm.loop !165

.loopexit:                                        ; preds = %51, %.preheader, %12, %31, %29, %25, %34
  %.sroa.029.0 = phi double [ %24, %25 ], [ %24, %29 ], [ %32, %31 ], [ %35, %34 ], [ %.sroa.03.0.copyload, %12 ], [ 0.000000e+00, %.preheader ], [ %.sroa.029.2, %51 ]
  %.sroa.8.0 = phi double [ %28, %25 ], [ %30, %29 ], [ %33, %31 ], [ %36, %34 ], [ %.sroa.11.0.copyload, %12 ], [ 0.000000e+00, %.preheader ], [ %.sroa.8.2, %51 ]
  store double %.sroa.029.0, ptr %1, align 8, !tbaa !4
  %.sroa.8.0..sroa_idx = getelementptr inbounds nuw i8, ptr %1, i64 8
  store double %.sroa.8.0, ptr %.sroa.8.0..sroa_idx, align 8, !tbaa !4
  call void @llvm.lifetime.end.p0(i64 8, ptr nonnull %4) #26
  call void @llvm.lifetime.end.p0(i64 8, ptr nonnull %3) #26
  %.fca.0.insert = insertvalue { double, double } poison, double %.sroa.029.0, 0
  %.fca.1.insert = insertvalue { double, double } %.fca.0.insert, double %.sroa.8.0, 1
  ret { double, double } %.fca.1.insert
}